(lp1
(dp2
S'first_name'
p3
S'Chris'
p4
sS'last_name'
p5
S'Barker'
p6
sS'home_phone'
p7
S'206-555-1234'
p8
sS'address'
p9
(dp10
S'line_1'
p11
S'835 NE 33rd St'
p12
sS'city'
p13
S'Seattle'
p14
sS'state'
p15
S'WA'
p16
sS'line_2'
p17
S''
sS'zip'
p18
S'96543'
p19
ssS'cell_phone'
p20
S'234-567-8901'
p21
sS'email'
p22
S'PythonCHB@gmail.com'
p23
sS'office"phone'
p24
S'123-456-7890'
p25
sa(dp26
g3
S'Fred'
p27
sg5
S'Jones'
p28
sS'office_phone'
p29
S'564-466-7990'
p30
sg7
S'510-555-1234'
p31
sg9
(dp32
g11
S'123 SE 13th St'
p33
sg13
S'Tacoma'
p34
sg15
g16
sg17
S'Apt. 43'
p35
sg18
S'93465'
p36
ssg20
S'403-561-8911'
p37
sg22
S'FredJones@some_company.com'
p38
sa(dp39
g3
S'Nancy'
p40
sg5
S'Wilson'
p41
sg29
S'123-765-9877'
p42
sg7
S'423-321-9876'
p43
sg9
(dp44
g11
S'8654 Walnut St'
p45
sg13
S'Pasadena'
p46
sg15
S'CA'
p47
sg17
S'Suite 567'
p48
sg18
S'12345'
p49
ssg20
S'432-567-8466'
p50
sg22
S'Wilson.Nancy@gmail.com'
p51
sa.